target datalayout = "e-m:e-p270:32:32-p271:32:32-p272:64:64-i64:64-i128:128-f80:128-n8:16:32:64-S128"
target triple = "x86_64-pc-linux-gnu"

%struct.print_field = type { i32, ptr, ptr, i16 }

@print_fields_parsable_print = dso_local global i32 0, align 4
@fields_delimiter = dso_local global ptr null, align 8
@.str = private unnamed_addr constant [3 x i8] c"%s\00", align 1
@.str.1 = private unnamed_addr constant [5 x i8] c"%s%s\00", align 1
@.str.2 = private unnamed_addr constant [4 x i8] c"%s|\00", align 1
@.str.3 = private unnamed_addr constant [7 x i8] c"%*.*s \00", align 1
@.str.5 = private unnamed_addr constant [8 x i8] c"%-*.*s \00", align 1
@.str.6 = private unnamed_addr constant [1 x i8] zeroinitializer, align 1
@.str.7 = private unnamed_addr constant [2 x i8] c" \00", align 1

; Function Attrs: nounwind uwtable
define dso_local void @print_fields_str(ptr noundef %0, ptr noundef %1, i32 noundef %2) #0 {
  %4 = alloca ptr, align 8
  %5 = alloca ptr, align 8
  %6 = alloca i32, align 4
  %7 = alloca i32, align 4
  %8 = alloca ptr, align 8
  %9 = alloca i64, align 8
  %10 = alloca ptr, align 8
  %11 = alloca ptr, align 8
  %12 = alloca i32, align 4
  store ptr %0, ptr %4, align 8
  store ptr %1, ptr %5, align 8
  store i32 %2, ptr %6, align 4
  call void @llvm.lifetime.start.p0(i64 4, ptr %7) #10
  %13 = load ptr, ptr %4, align 8
  %14 = getelementptr inbounds nuw %struct.print_field, ptr %13, i32 0, i32 0
  %15 = load i32, ptr %14, align 8
  %16 = call i32 @llvm.abs.i32(i32 %15, i1 true)
  store i32 %16, ptr %7, align 4
  %17 = load i32, ptr %7, align 4
  %18 = add nsw i32 %17, 1
  %19 = zext i32 %18 to i64
  %20 = call ptr @llvm.stacksave.p0()
  store ptr %20, ptr %8, align 8
  %21 = alloca i8, i64 %19, align 16
  store i64 %19, ptr %9, align 8
  call void @llvm.lifetime.start.p0(i64 8, ptr %10) #10
  store ptr null, ptr %10, align 8
  call void @llvm.lifetime.start.p0(i64 8, ptr %11) #10
  store ptr null, ptr %11, align 8
  %22 = load ptr, ptr %5, align 8
  %23 = icmp ne ptr %22, null
  br i1 %23, label %24, label %26

24:                                               ; preds = %3
  %25 = load ptr, ptr %5, align 8
  store ptr %25, ptr %11, align 8
  br label %26

26:                                               ; preds = %24, %3
  %27 = load ptr, ptr %11, align 8
  %28 = icmp ne ptr %27, null
  br i1 %28, label %35, label %29

29:                                               ; preds = %26
  %30 = load i32, ptr @print_fields_parsable_print, align 4
  %31 = icmp ne i32 %30, 0
  br i1 %31, label %32, label %33

32:                                               ; preds = %29
  store ptr @.str.6, ptr %10, align 8
  br label %34

33:                                               ; preds = %29
  store ptr @.str.7, ptr %10, align 8
  br label %34

34:                                               ; preds = %33, %32
  br label %37

35:                                               ; preds = %26
  %36 = load ptr, ptr %11, align 8
  store ptr %36, ptr %10, align 8
  br label %37

37:                                               ; preds = %35, %34
  %38 = load i32, ptr @print_fields_parsable_print, align 4
  %39 = icmp eq i32 %38, 2
  br i1 %39, label %40, label %46

40:                                               ; preds = %37
  %41 = load i32, ptr %6, align 4
  %42 = icmp ne i32 %41, 0
  br i1 %42, label %43, label %46

43:                                               ; preds = %40
  %44 = load ptr, ptr %10, align 8
  %45 = call i32 (ptr, ...) @printf(ptr noundef @.str, ptr noundef %44)
  br label %112

46:                                               ; preds = %40, %37
  %47 = load i32, ptr @print_fields_parsable_print, align 4
  %48 = icmp ne i32 %47, 0
  br i1 %48, label %49, label %55

49:                                               ; preds = %46
  %50 = load ptr, ptr @fields_delimiter, align 8
  %51 = icmp ne ptr %50, null
  br i1 %51, label %55, label %52

52:                                               ; preds = %49
  %53 = load ptr, ptr %10, align 8
  %54 = call i32 (ptr, ...) @printf(ptr noundef @.str.2, ptr noundef %53)
  br label %111

55:                                               ; preds = %49, %46
  %56 = load i32, ptr @print_fields_parsable_print, align 4
  %57 = icmp ne i32 %56, 0
  br i1 %57, label %58, label %65

58:                                               ; preds = %55
  %59 = load ptr, ptr @fields_delimiter, align 8
  %60 = icmp ne ptr %59, null
  br i1 %60, label %61, label %65

61:                                               ; preds = %58
  %62 = load ptr, ptr %10, align 8
  %63 = load ptr, ptr @fields_delimiter, align 8
  %64 = call i32 (ptr, ...) @printf(ptr noundef @.str.1, ptr noundef %62, ptr noundef %63)
  br label %110

65:                                               ; preds = %58, %55
  %66 = load ptr, ptr %11, align 8
  %67 = icmp ne ptr %66, null
  br i1 %67, label %68, label %93

68:                                               ; preds = %65
  call void @llvm.lifetime.start.p0(i64 4, ptr %12) #10
  %69 = load ptr, ptr %11, align 8
  %70 = call i64 @strlen(ptr noundef %69) #11
  %71 = trunc i64 %70 to i32
  store i32 %71, ptr %12, align 4
  %72 = load ptr, ptr %11, align 8
  %73 = load i32, ptr %12, align 4
  %74 = load i32, ptr %7, align 4
  %75 = icmp slt i32 %73, %74
  br i1 %75, label %76, label %78

76:                                               ; preds = %68
  %77 = load i32, ptr %12, align 4
  br label %80

78:                                               ; preds = %68
  %79 = load i32, ptr %7, align 4
  br label %80

80:                                               ; preds = %78, %76
  %81 = phi i32 [ %77, %76 ], [ %79, %78 ]
  %82 = add nsw i32 %81, 1
  %83 = sext i32 %82 to i64
  call void @llvm.memcpy.p0.p0.i64(ptr align 16 %21, ptr align 1 %72, i64 %83, i1 false)
  %84 = load i32, ptr %12, align 4
  %85 = load i32, ptr %7, align 4
  %86 = icmp sgt i32 %84, %85
  br i1 %86, label %87, label %92

87:                                               ; preds = %80
  %88 = load i32, ptr %7, align 4
  %89 = sub nsw i32 %88, 1
  %90 = sext i32 %89 to i64
  %91 = getelementptr inbounds i8, ptr %21, i64 %90
  store i8 43, ptr %91, align 1
  br label %92

92:                                               ; preds = %87, %80
  store ptr %21, ptr %10, align 8
  call void @llvm.lifetime.end.p0(i64 4, ptr %12) #10
  br label %93

93:                                               ; preds = %92, %65
  %94 = load ptr, ptr %4, align 8
  %95 = getelementptr inbounds nuw %struct.print_field, ptr %94, i32 0, i32 0
  %96 = load i32, ptr %95, align 8
  %97 = load i32, ptr %7, align 4
  %98 = icmp eq i32 %96, %97
  br i1 %98, label %99, label %104

99:                                               ; preds = %93
  %100 = load i32, ptr %7, align 4
  %101 = load i32, ptr %7, align 4
  %102 = load ptr, ptr %10, align 8
  %103 = call i32 (ptr, ...) @printf(ptr noundef @.str.3, i32 noundef %100, i32 noundef %101, ptr noundef %102)
  br label %109

104:                                              ; preds = %93
  %105 = load i32, ptr %7, align 4
  %106 = load i32, ptr %7, align 4
  %107 = load ptr, ptr %10, align 8
  %108 = call i32 (ptr, ...) @printf(ptr noundef @.str.5, i32 noundef %105, i32 noundef %106, ptr noundef %107)
  br label %109

109:                                              ; preds = %104, %99
  br label %110

110:                                              ; preds = %109, %61
  br label %111

111:                                              ; preds = %110, %52
  br label %112

112:                                              ; preds = %111, %43
  call void @llvm.lifetime.end.p0(i64 8, ptr %11) #10
  call void @llvm.lifetime.end.p0(i64 8, ptr %10) #10
  %113 = load ptr, ptr %8, align 8
  call void @llvm.stackrestore.p0(ptr %113)
  call void @llvm.lifetime.end.p0(i64 4, ptr %7) #10
  ret void
}