; Function Attrs: nofree nounwind uwtable
define dso_local void @print_fields_str(ptr noundef readonly captures(none) %0, ptr noundef %1, i32 noundef %2) local_unnamed_addr #5 {
  %4 = load i32, ptr %0, align 8
  %5 = tail call i32 @llvm.abs.i32(i32 %4, i1 true)
  %6 = add nuw nsw i32 %5, 1
  %7 = zext nneg i32 %6 to i64
  %8 = alloca i8, i64 %7, align 16
  %.not = icmp eq ptr %1, null
  %9 = load i32, ptr @print_fields_parsable_print, align 4
  %.not39 = icmp eq i32 %9, 0
  %.str.7..str.6 = select i1 %.not39, ptr @.str.7, ptr @.str.6
  %.0 = select i1 %.not, ptr %.str.7..str.6, ptr %1
  %10 = icmp eq i32 %9, 2
  %11 = icmp ne i32 %2, 0
  %or.cond = and i1 %11, %10
  br i1 %or.cond, label %12, label %14

12:                                               ; preds = %3
  %13 = tail call i32 (ptr, ...) @printf(ptr noundef nonnull dereferenceable(1) @.str, ptr noundef nonnull %.0)
  br label %41

14:                                               ; preds = %3
  %15 = load ptr, ptr @fields_delimiter, align 8
  %16 = icmp ne ptr %15, null
  %or.cond3 = select i1 %.not39, i1 true, i1 %16
  br i1 %or.cond3, label %19, label %17

17:                                               ; preds = %14
  %18 = tail call i32 (ptr, ...) @printf(ptr noundef nonnull dereferenceable(1) @.str.2, ptr noundef nonnull %.0)
  br label %41

19:                                               ; preds = %14
  %20 = icmp ne i32 %9, 0
  %or.cond5 = select i1 %20, i1 %16, i1 false
  br i1 %or.cond5, label %21, label %23

21:                                               ; preds = %19
  %22 = tail call i32 (ptr, ...) @printf(ptr noundef nonnull dereferenceable(1) @.str.1, ptr noundef nonnull %.0, ptr noundef nonnull %15)
  br label %41

23:                                               ; preds = %19
  br i1 %.not, label %35, label %24

24:                                               ; preds = %23
  %25 = tail call i64 @strlen(ptr noundef nonnull dereferenceable(1) %1) #12
  %26 = trunc i64 %25 to i32
  %27 = tail call i32 @llvm.smin.i32(i32 %5, i32 %26)
  %28 = add nsw i32 %27, 1
  %29 = sext i32 %28 to i64
  call void @llvm.memcpy.p0.p0.i64(ptr nonnull align 16 %8, ptr nonnull align 1 %1, i64 %29, i1 false)
  %30 = icmp slt i32 %5, %26
  br i1 %30, label %31, label %35

31:                                               ; preds = %24
  %32 = zext nneg i32 %5 to i64
  %33 = getelementptr i8, ptr %8, i64 %32
  %34 = getelementptr i8, ptr %33, i64 -1
  store i8 43, ptr %34, align 1
  br label %35

35:                                               ; preds = %24, %31, %23
  %.1 = phi ptr [ %.str.7..str.6, %23 ], [ %8, %31 ], [ %8, %24 ]
  %36 = icmp sgt i32 %4, -1
  br i1 %36, label %37, label %39

37:                                               ; preds = %35
  %38 = call i32 (ptr, ...) @printf(ptr noundef nonnull dereferenceable(1) @.str.3, i32 noundef %5, i32 noundef %5, ptr noundef nonnull %.1)
  br label %41

39:                                               ; preds = %35
  %40 = call i32 (ptr, ...) @printf(ptr noundef nonnull dereferenceable(1) @.str.5, i32 noundef %5, i32 noundef %5, ptr noundef nonnull %.1)
  br label %41

41:                                               ; preds = %17, %37, %39, %21, %12
  ret void
}